; Function Attrs: mustprogress nofree norecurse nosync nounwind willreturn memory(argmem: write) uwtable
define dso_local void @_ZN16btCollisionWorldC2EP12btDispatcherP21btBroadphaseInterfaceP24btCollisionConfiguration(ptr nocapture noundef nonnull writeonly align 8 dereferenceable(121) %this, ptr noundef %dispatcher, ptr noundef %pairCache, ptr nocapture readnone %collisionConfiguration) unnamed_addr #0 align 2 personality ptr @__gxx_personality_v0 {
entry:
  store ptr getelementptr inbounds ({ [16 x ptr] }, ptr @_ZTV16btCollisionWorld, i64 0, i32 0, i64 2), ptr %this, align 8
  %m_ownsMemory.i.i = getelementptr inbounds i8, ptr %this, i64 32
  store i8 1, ptr %m_ownsMemory.i.i, align 8
  %m_data.i.i = getelementptr inbounds i8, ptr %this, i64 24
  store ptr null, ptr %m_data.i.i, align 8
  %m_size.i.i = getelementptr inbounds i8, ptr %this, i64 12
  store i32 0, ptr %m_size.i.i, align 4
  %m_capacity.i.i = getelementptr inbounds i8, ptr %this, i64 16
  store i32 0, ptr %m_capacity.i.i, align 8
  %m_dispatcher1 = getelementptr inbounds i8, ptr %this, i64 40
  store ptr %dispatcher, ptr %m_dispatcher1, align 8
  %m_dispatchInfo = getelementptr inbounds i8, ptr %this, i64 48
  store float 0.000000e+00, ptr %m_dispatchInfo, align 8
  %m_stepCount.i = getelementptr inbounds i8, ptr %this, i64 52
  store i32 0, ptr %m_stepCount.i, align 4
  %m_dispatchFunc.i = getelementptr inbounds i8, ptr %this, i64 56
  store i32 1, ptr %m_dispatchFunc.i, align 8
  %m_timeOfImpact.i = getelementptr inbounds i8, ptr %this, i64 60
  store float 1.000000e+00, ptr %m_timeOfImpact.i, align 4
  %m_useContinuous.i = getelementptr inbounds i8, ptr %this, i64 64
  store i8 1, ptr %m_useContinuous.i, align 8
  %m_debugDraw.i = getelementptr inbounds i8, ptr %this, i64 72
  store ptr null, ptr %m_debugDraw.i, align 8
  %m_enableSatConvex.i = getelementptr inbounds i8, ptr %this, i64 80
  store i8 0, ptr %m_enableSatConvex.i, align 8
  %m_enableSPU.i = getelementptr inbounds i8, ptr %this, i64 81
  store i8 1, ptr %m_enableSPU.i, align 1
  %m_useEpa.i = getelementptr inbounds i8, ptr %this, i64 82
  store i8 1, ptr %m_useEpa.i, align 2
  %m_allowedCcdPenetration.i = getelementptr inbounds i8, ptr %this, i64 84
  store float 0x3FA47AE140000000, ptr %m_allowedCcdPenetration.i, align 4
  %m_useConvexConservativeDistanceUtil.i = getelementptr inbounds i8, ptr %this, i64 88
  store i8 0, ptr %m_useConvexConservativeDistanceUtil.i, align 8
  %m_convexConservativeDistanceThreshold.i = getelementptr inbounds i8, ptr %this, i64 92
  store float 0.000000e+00, ptr %m_convexConservativeDistanceThreshold.i, align 4
  %m_deterministicOverlappingPairs.i = getelementptr inbounds i8, ptr %this, i64 96
  store i8 0, ptr %m_deterministicOverlappingPairs.i, align 8
  %m_broadphasePairCache = getelementptr inbounds i8, ptr %this, i64 104
  store ptr %pairCache, ptr %m_broadphasePairCache, align 8
  %m_debugDrawer = getelementptr inbounds i8, ptr %this, i64 112
  store ptr null, ptr %m_debugDrawer, align 8
  %m_forceUpdateAllAabbs = getelementptr inbounds i8, ptr %this, i64 120
  store i8 1, ptr %m_forceUpdateAllAabbs, align 8
  ret void
}